; Function Attrs: mustprogress uwtable
define hidden void @_ZN7grobner5flushEv(ptr noundef nonnull align 8 dereferenceable(228) %this) local_unnamed_addr #3 align 2 {
entry:
  %m_manager = getelementptr inbounds i8, ptr %this, i64 32
  %0 = load ptr, ptr %m_manager, align 8
  %m_var2weight = getelementptr inbounds i8, ptr %this, i64 64
  tail call void @_Z16dec_ref_map_keysI11ast_manager7obj_mapI4expriEEvRT_RT0_(ptr noundef nonnull align 8 dereferenceable(976) %0, ptr noundef nonnull align 8 dereferenceable(24) %m_var2weight)
  %m_equations_to_delete.i = getelementptr inbounds i8, ptr %this, i64 160
  %1 = load ptr, ptr %m_equations_to_delete.i, align 8
  %cmp.i.i.i = icmp eq ptr %1, null
  br i1 %cmp.i.i.i, label %_ZN7grobner13del_equationsEj.exit, label %_ZN6vectorIPN7grobner8equationELb0EjE3endEv.exit.i

_ZN6vectorIPN7grobner8equationELb0EjE3endEv.exit.i: ; preds = %entry
  %arrayidx.i.i.i = getelementptr inbounds i8, ptr %1, i64 -4
  %2 = load i32, ptr %arrayidx.i.i.i, align 4
  %3 = zext i32 %2 to i64
  %add.ptr.i.i = getelementptr inbounds ptr, ptr %1, i64 %3
  %cmp.not6.i = icmp eq i32 %2, 0
  br i1 %cmp.not6.i, label %if.then.i.i, label %for.body.i

for.body.i:                                       ; preds = %_ZN6vectorIPN7grobner8equationELb0EjE3endEv.exit.i, %for.inc.i
  %it.07.i = phi ptr [ %incdec.ptr.i, %for.inc.i ], [ %1, %_ZN6vectorIPN7grobner8equationELb0EjE3endEv.exit.i ]
  %4 = load ptr, ptr %it.07.i, align 8
  %tobool.not.i = icmp eq ptr %4, null
  br i1 %tobool.not.i, label %for.inc.i, label %if.then.i

if.then.i:                                        ; preds = %for.body.i
  tail call void @_ZN7grobner12del_equationEPNS_8equationE(ptr noundef nonnull align 8 dereferenceable(228) %this, ptr noundef nonnull %4)
  br label %for.inc.i

for.inc.i:                                        ; preds = %if.then.i, %for.body.i
  %incdec.ptr.i = getelementptr inbounds i8, ptr %it.07.i, i64 8
  %cmp.not.i = icmp eq ptr %incdec.ptr.i, %add.ptr.i.i
  br i1 %cmp.not.i, label %for.end.i, label %for.body.i, !llvm.loop !4

for.end.i:                                        ; preds = %for.inc.i
  %.pre.i = load ptr, ptr %m_equations_to_delete.i, align 8
  %tobool.not.i.i = icmp eq ptr %.pre.i, null
  br i1 %tobool.not.i.i, label %_ZN7grobner13del_equationsEj.exit, label %if.then.i.i

if.then.i.i:                                      ; preds = %_ZN6vectorIPN7grobner8equationELb0EjE3endEv.exit.i, %for.end.i
  %5 = phi ptr [ %.pre.i, %for.end.i ], [ %1, %_ZN6vectorIPN7grobner8equationELb0EjE3endEv.exit.i ]
  %arrayidx.i.i = getelementptr inbounds i8, ptr %5, i64 -4
  store i32 0, ptr %arrayidx.i.i, align 4
  br label %_ZN7grobner13del_equationsEj.exit

_ZN7grobner13del_equationsEj.exit:                ; preds = %entry, %for.end.i, %if.then.i.i
  ret void
}